target datalayout = "e-m:e-p270:32:32-p271:32:32-p272:64:64-i64:64-i128:128-f80:128-n8:16:32:64-S128"
target triple = "x86_64-pc-linux-gnu"

@_ZN12G1HeapRegion10GrainWordsE = external global i64, align 8
@TargetSurvivorRatio = external global i32, align 4

; Function Attrs: mustprogress nounwind uwtable
define hidden noundef i64 @_ZNK8G1Policy21desired_survivor_sizeEj(ptr noundef nonnull align 8 dereferenceable(552) %0, i32 noundef %1) #1 align 2 {
  %3 = alloca ptr, align 8
  %4 = alloca i32, align 4
  %5 = alloca i64, align 8
  store ptr %0, ptr %3, align 8
  store i32 %1, ptr %4, align 4
  %6 = load i64, ptr @_ZN12G1HeapRegion10GrainWordsE, align 8
  %7 = load i32, ptr %4, align 4
  %8 = zext i32 %7 to i64
  %9 = mul i64 %6, %8
  store i64 %9, ptr %5, align 8
  %10 = load i64, ptr %5, align 8
  %11 = uitofp i64 %10 to double
  %12 = load i32, ptr @TargetSurvivorRatio, align 4
  %13 = uitofp i32 %12 to double
  %14 = fmul double %11, %13
  %15 = fdiv double %14, 1.000000e+02
  %16 = fptoui double %15 to i64
  ret i64 %16
}