; Function Attrs: mustprogress nofree norecurse nosync nounwind willreturn memory(read, argmem: none, inaccessiblemem: none) uwtable
define hidden noundef i64 @_ZNK8G1Policy21desired_survivor_sizeEj(ptr nocapture noundef nonnull readnone align 8 dereferenceable(552) %0, i32 noundef %1) local_unnamed_addr #5 align 2 {
  %3 = load i64, ptr @_ZN12G1HeapRegion10GrainWordsE, align 8
  %4 = zext i32 %1 to i64
  %5 = mul i64 %3, %4
  %6 = uitofp i64 %5 to double
  %7 = load i32, ptr @TargetSurvivorRatio, align 4
  %8 = uitofp i32 %7 to double
  %9 = fmul double %6, %8
  %10 = fdiv double %9, 1.000000e+02
  %11 = fptoui double %10 to i64
  ret i64 %11
}